target datalayout = "e-m:e-p270:32:32-p271:32:32-p272:64:64-i64:64-i128:128-f80:128-n8:16:32:64-S128"
target triple = "x86_64-pc-linux-gnu"

%struct.tcg_region_state = type { %struct.QemuMutex, ptr, ptr, i64, i64, i64, i64, i64, i64 }
%struct.QemuMutex = type { %union.pthread_mutex_t, i8 }
%union.pthread_mutex_t = type { %struct.__pthread_mutex_s }
%struct.__pthread_mutex_s = type { i32, i32, i32, i32, i32, i16, i16, %struct.__pthread_internal_list }
%struct.__pthread_internal_list = type { ptr, ptr }

@region = internal global %struct.tcg_region_state zeroinitializer, align 8

; Function Attrs: nounwind sspstrong uwtable
define dso_local i64 @tcg_code_capacity() #0 {
  %1 = alloca i64, align 8
  %2 = alloca i64, align 8
  call void @llvm.lifetime.start.p0(i64 8, ptr %1) #11
  store i64 0, ptr %1, align 8, !annotation !4
  call void @llvm.lifetime.start.p0(i64 8, ptr %2) #11
  store i64 0, ptr %2, align 8, !annotation !4
  %3 = load i64, ptr getelementptr inbounds nuw (%struct.tcg_region_state, ptr @region, i32 0, i32 5), align 8
  %4 = load i64, ptr getelementptr inbounds nuw (%struct.tcg_region_state, ptr @region, i32 0, i32 4), align 8
  %5 = sub i64 %3, %4
  store i64 %5, ptr %1, align 8
  %6 = load i64, ptr getelementptr inbounds nuw (%struct.tcg_region_state, ptr @region, i32 0, i32 6), align 8
  store i64 %6, ptr %2, align 8
  %7 = load i64, ptr getelementptr inbounds nuw (%struct.tcg_region_state, ptr @region, i32 0, i32 3), align 8
  %8 = sub i64 %7, 1
  %9 = load i64, ptr %1, align 8
  %10 = mul i64 %8, %9
  %11 = load i64, ptr %2, align 8
  %12 = sub i64 %11, %10
  store i64 %12, ptr %2, align 8
  %13 = load i64, ptr getelementptr inbounds nuw (%struct.tcg_region_state, ptr @region, i32 0, i32 3), align 8
  %14 = mul i64 %13, 1024
  %15 = load i64, ptr %2, align 8
  %16 = sub i64 %15, %14
  store i64 %16, ptr %2, align 8
  %17 = load i64, ptr %2, align 8
  call void @llvm.lifetime.end.p0(i64 8, ptr %2) #11
  call void @llvm.lifetime.end.p0(i64 8, ptr %1) #11
  ret i64 %17
}