; Function Attrs: mustprogress nofree norecurse nosync nounwind sspstrong willreturn memory(read, argmem: none, inaccessiblemem: none) uwtable
define dso_local i64 @tcg_code_capacity() local_unnamed_addr #0 {
  %1 = load i64, ptr getelementptr inbounds nuw (i8, ptr @region, i64 80), align 8
  %2 = load i64, ptr getelementptr inbounds nuw (i8, ptr @region, i64 72), align 8
  %.neg = sub i64 %2, %1
  %3 = load i64, ptr getelementptr inbounds nuw (i8, ptr @region, i64 88), align 8
  %4 = load i64, ptr getelementptr inbounds nuw (i8, ptr @region, i64 64), align 8
  %5 = add i64 %4, -1
  %.neg4 = mul i64 %5, %.neg
  %6 = shl i64 %4, 10
  %7 = sub i64 %3, %6
  %8 = add i64 %7, %.neg4
  ret i64 %8
}